target datalayout = "e-m:e-p270:32:32-p271:32:32-p272:64:64-i64:64-i128:128-f80:128-n8:16:32:64-S128"
target triple = "x86_64-pc-linux-gnu"

%struct.missing_cache_key = type { i32, i64 }
%struct.CompactAttribute = type { i32, i16, i8, i8, i8, i8, i8, i8, i8 }
%struct.TupleDescData = type { i32, i32, i32, i32, ptr, [0 x %struct.CompactAttribute] }
%struct.TupleConstr = type { ptr, ptr, ptr, i16, i16, i8, i8, i8 }
%struct.AttrMissing = type { i8, i64 }
%struct.varattrib_1b = type { i8, [0 x i8] }
%struct.varattrib_1b_e = type { i8, i8, [0 x i8] }
%struct.anon = type { i32, [0 x i8] }
%struct.HASHCTL = type { i64, i64, i64, i64, i64, i64, ptr, ptr, ptr, ptr, ptr, ptr }

@missing_cache = internal global ptr null, align 8
@TopMemoryContext = external global ptr, align 8
@.str.4 = private unnamed_addr constant [21 x i8] c"Missing Values Cache\00", align 1
@CurrentMemoryContext = external global ptr, align 8

; Function Attrs: inlinehint nounwind uwtable
define internal i64 @PointerGetDatum(ptr noundef %0) #2 {
  %2 = alloca ptr, align 8
  store ptr %0, ptr %2, align 8
  %3 = load ptr, ptr %2, align 8
  %4 = ptrtoint ptr %3 to i64
  ret i64 %4
}

; Function Attrs: inlinehint nounwind uwtable
define internal ptr @MemoryContextSwitchTo(ptr noundef %0) #2 {
  %2 = alloca ptr, align 8
  %3 = alloca ptr, align 8
  store ptr %0, ptr %2, align 8
  call void @llvm.lifetime.start.p0(i64 8, ptr %3) #8
  %4 = load ptr, ptr @CurrentMemoryContext, align 8
  store ptr %4, ptr %3, align 8
  %5 = load ptr, ptr %2, align 8
  store ptr %5, ptr @CurrentMemoryContext, align 8
  %6 = load ptr, ptr %3, align 8
  call void @llvm.lifetime.end.p0(i64 8, ptr %3) #8
  ret ptr %6
}

; Function Attrs: nounwind uwtable
define internal void @init_missing_cache() #0 {
  %1 = alloca %struct.HASHCTL, align 8
  call void @llvm.lifetime.start.p0(i64 96, ptr %1) #8
  %2 = getelementptr inbounds nuw %struct.HASHCTL, ptr %1, i32 0, i32 4
  store i64 16, ptr %2, align 8
  %3 = getelementptr inbounds nuw %struct.HASHCTL, ptr %1, i32 0, i32 5
  store i64 16, ptr %3, align 8
  %4 = load ptr, ptr @TopMemoryContext, align 8
  %5 = getelementptr inbounds nuw %struct.HASHCTL, ptr %1, i32 0, i32 10
  store ptr %4, ptr %5, align 8
  %6 = getelementptr inbounds nuw %struct.HASHCTL, ptr %1, i32 0, i32 6
  store ptr @missing_hash, ptr %6, align 8
  %7 = getelementptr inbounds nuw %struct.HASHCTL, ptr %1, i32 0, i32 7
  store ptr @missing_match, ptr %7, align 8
  %8 = call ptr @hash_create(ptr noundef @.str.4, i64 noundef 32, ptr noundef %1, i32 noundef 1224)
  store ptr %8, ptr @missing_cache, align 8
  call void @llvm.lifetime.end.p0(i64 96, ptr %1) #8
  ret void
}

; Function Attrs: inlinehint nounwind uwtable
define internal ptr @TupleDescCompactAttr(ptr noundef %0, i32 noundef %1) #2 {
  %3 = alloca ptr, align 8
  %4 = alloca i32, align 4
  %5 = alloca ptr, align 8
  store ptr %0, ptr %3, align 8
  store i32 %1, ptr %4, align 4
  call void @llvm.lifetime.start.p0(i64 8, ptr %5) #8
  %6 = load ptr, ptr %3, align 8
  %7 = getelementptr inbounds nuw %struct.TupleDescData, ptr %6, i32 0, i32 5
  %8 = load i32, ptr %4, align 4
  %9 = sext i32 %8 to i64
  %10 = getelementptr inbounds [0 x %struct.CompactAttribute], ptr %7, i64 0, i64 %9
  store ptr %10, ptr %5, align 8
  %11 = load ptr, ptr %5, align 8
  call void @llvm.lifetime.end.p0(i64 8, ptr %5) #8
  ret ptr %11
}

; Function Attrs: nounwind uwtable
define dso_local i64 @getmissingattr(ptr noundef %0, i32 noundef %1, ptr noundef %2) #0 {
  %4 = alloca i64, align 8
  %5 = alloca ptr, align 8
  %6 = alloca i32, align 4
  %7 = alloca ptr, align 8
  %8 = alloca ptr, align 8
  %9 = alloca ptr, align 8
  %10 = alloca %struct.missing_cache_key, align 8
  %11 = alloca ptr, align 8
  %12 = alloca i8, align 1
  %13 = alloca ptr, align 8
  %14 = alloca i32, align 4
  store ptr %0, ptr %5, align 8
  store i32 %1, ptr %6, align 4
  store ptr %2, ptr %7, align 8
  call void @llvm.lifetime.start.p0(i64 8, ptr %8) #8
  %15 = load ptr, ptr %5, align 8
  %16 = load i32, ptr %6, align 4
  %17 = sub i32 %16, 1
  %18 = call ptr @TupleDescCompactAttr(ptr noundef %15, i32 noundef %17)
  store ptr %18, ptr %8, align 8
  %19 = load ptr, ptr %8, align 8
  %20 = getelementptr inbounds nuw %struct.CompactAttribute, ptr %19, i32 0, i32 4
  %21 = load i8, ptr %20, align 4, !range !4, !noundef !5
  %22 = trunc i8 %21 to i1
  br i1 %22, label %23, label %177

23:                                               ; preds = %3
  call void @llvm.lifetime.start.p0(i64 8, ptr %9) #8
  %24 = load ptr, ptr %5, align 8
  %25 = getelementptr inbounds nuw %struct.TupleDescData, ptr %24, i32 0, i32 4
  %26 = load ptr, ptr %25, align 8
  %27 = getelementptr inbounds nuw %struct.TupleConstr, ptr %26, i32 0, i32 2
  %28 = load ptr, ptr %27, align 8
  %29 = load i32, ptr %6, align 4
  %30 = sub i32 %29, 1
  %31 = sext i32 %30 to i64
  %32 = getelementptr inbounds %struct.AttrMissing, ptr %28, i64 %31
  store ptr %32, ptr %9, align 8
  %33 = load ptr, ptr %9, align 8
  %34 = getelementptr inbounds nuw %struct.AttrMissing, ptr %33, i32 0, i32 0
  %35 = load i8, ptr %34, align 8, !range !4, !noundef !5
  %36 = trunc i8 %35 to i1
  br i1 %36, label %37, label %173

37:                                               ; preds = %23
  call void @llvm.lifetime.start.p0(i64 16, ptr %10) #8
  call void @llvm.lifetime.start.p0(i64 8, ptr %11) #8
  call void @llvm.lifetime.start.p0(i64 1, ptr %12) #8
  call void @llvm.lifetime.start.p0(i64 8, ptr %13) #8
  %38 = load ptr, ptr %7, align 8
  store i8 0, ptr %38, align 1
  %39 = load ptr, ptr %8, align 8
  %40 = getelementptr inbounds nuw %struct.CompactAttribute, ptr %39, i32 0, i32 2
  %41 = load i8, ptr %40, align 2, !range !4, !noundef !5
  %42 = trunc i8 %41 to i1
  br i1 %42, label %43, label %47

43:                                               ; preds = %37
  %44 = load ptr, ptr %9, align 8
  %45 = getelementptr inbounds nuw %struct.AttrMissing, ptr %44, i32 0, i32 1
  %46 = load i64, ptr %45, align 8
  store i64 %46, ptr %4, align 8
  store i32 1, ptr %14, align 4
  br label %172

47:                                               ; preds = %37
  %48 = load ptr, ptr @missing_cache, align 8
  %49 = icmp eq ptr %48, null
  br i1 %49, label %50, label %51

50:                                               ; preds = %47
  call void @init_missing_cache()
  br label %51

51:                                               ; preds = %50, %47
  %52 = load ptr, ptr %8, align 8
  %53 = getelementptr inbounds nuw %struct.CompactAttribute, ptr %52, i32 0, i32 1
  %54 = load i16, ptr %53, align 4
  %55 = sext i16 %54 to i32
  %56 = icmp sgt i32 %55, 0
  br i1 %56, label %57, label %63

57:                                               ; preds = %51
  %58 = load ptr, ptr %8, align 8
  %59 = getelementptr inbounds nuw %struct.CompactAttribute, ptr %58, i32 0, i32 1
  %60 = load i16, ptr %59, align 4
  %61 = sext i16 %60 to i32
  %62 = getelementptr inbounds nuw %struct.missing_cache_key, ptr %10, i32 0, i32 0
  store i32 %61, ptr %62, align 8
  br label %144

63:                                               ; preds = %51
  %64 = load ptr, ptr %9, align 8
  %65 = getelementptr inbounds nuw %struct.AttrMissing, ptr %64, i32 0, i32 1
  %66 = load i64, ptr %65, align 8
  %67 = inttoptr i64 %66 to ptr
  %68 = getelementptr inbounds nuw %struct.varattrib_1b, ptr %67, i32 0, i32 0
  %69 = load i8, ptr %68, align 1
  %70 = zext i8 %69 to i32
  %71 = icmp eq i32 %70, 1
  br i1 %71, label %72, label %108

72:                                               ; preds = %63
  %73 = load ptr, ptr %9, align 8
  %74 = getelementptr inbounds nuw %struct.AttrMissing, ptr %73, i32 0, i32 1
  %75 = load i64, ptr %74, align 8
  %76 = inttoptr i64 %75 to ptr
  %77 = getelementptr inbounds nuw %struct.varattrib_1b_e, ptr %76, i32 0, i32 1
  %78 = load i8, ptr %77, align 1
  %79 = zext i8 %78 to i32
  %80 = icmp eq i32 %79, 1
  br i1 %80, label %81, label %82

81:                                               ; preds = %72
  br label %105

82:                                               ; preds = %72
  %83 = load ptr, ptr %9, align 8
  %84 = getelementptr inbounds nuw %struct.AttrMissing, ptr %83, i32 0, i32 1
  %85 = load i64, ptr %84, align 8
  %86 = inttoptr i64 %85 to ptr
  %87 = getelementptr inbounds nuw %struct.varattrib_1b_e, ptr %86, i32 0, i32 1
  %88 = load i8, ptr %87, align 1
  %89 = zext i8 %88 to i32
  %90 = and i32 %89, -2
  %91 = icmp eq i32 %90, 2
  br i1 %91, label %92, label %93

92:                                               ; preds = %82
  br label %103

93:                                               ; preds = %82
  %94 = load ptr, ptr %9, align 8
  %95 = getelementptr inbounds nuw %struct.AttrMissing, ptr %94, i32 0, i32 1
  %96 = load i64, ptr %95, align 8
  %97 = inttoptr i64 %96 to ptr
  %98 = getelementptr inbounds nuw %struct.varattrib_1b_e, ptr %97, i32 0, i32 1
  %99 = load i8, ptr %98, align 1
  %100 = zext i8 %99 to i32
  %101 = icmp eq i32 %100, 18
  %102 = select i1 %101, i64 16, i64 0
  br label %103

103:                                              ; preds = %93, %92
  %104 = phi i64 [ 8, %92 ], [ %102, %93 ]
  br label %105

105:                                              ; preds = %103, %81
  %106 = phi i64 [ 8, %81 ], [ %104, %103 ]
  %107 = add i64 2, %106
  br label %140

108:                                              ; preds = %63
  %109 = load ptr, ptr %9, align 8
  %110 = getelementptr inbounds nuw %struct.AttrMissing, ptr %109, i32 0, i32 1
  %111 = load i64, ptr %110, align 8
  %112 = inttoptr i64 %111 to ptr
  %113 = getelementptr inbounds nuw %struct.varattrib_1b, ptr %112, i32 0, i32 0
  %114 = load i8, ptr %113, align 1
  %115 = zext i8 %114 to i32
  %116 = and i32 %115, 1
  %117 = icmp eq i32 %116, 1
  br i1 %117, label %118, label %128

118:                                              ; preds = %108
  %119 = load ptr, ptr %9, align 8
  %120 = getelementptr inbounds nuw %struct.AttrMissing, ptr %119, i32 0, i32 1
  %121 = load i64, ptr %120, align 8
  %122 = inttoptr i64 %121 to ptr
  %123 = getelementptr inbounds nuw %struct.varattrib_1b, ptr %122, i32 0, i32 0
  %124 = load i8, ptr %123, align 1
  %125 = zext i8 %124 to i32
  %126 = ashr i32 %125, 1
  %127 = and i32 %126, 127
  br label %137

128:                                              ; preds = %108
  %129 = load ptr, ptr %9, align 8
  %130 = getelementptr inbounds nuw %struct.AttrMissing, ptr %129, i32 0, i32 1
  %131 = load i64, ptr %130, align 8
  %132 = inttoptr i64 %131 to ptr
  %133 = getelementptr inbounds nuw %struct.anon, ptr %132, i32 0, i32 0
  %134 = load i32, ptr %133, align 4
  %135 = lshr i32 %134, 2
  %136 = and i32 %135, 1073741823
  br label %137

137:                                              ; preds = %128, %118
  %138 = phi i32 [ %127, %118 ], [ %136, %128 ]
  %139 = zext i32 %138 to i64
  br label %140

140:                                              ; preds = %137, %105
  %141 = phi i64 [ %107, %105 ], [ %139, %137 ]
  %142 = trunc i64 %141 to i32
  %143 = getelementptr inbounds nuw %struct.missing_cache_key, ptr %10, i32 0, i32 0
  store i32 %142, ptr %143, align 8
  br label %144

144:                                              ; preds = %140, %57
  %145 = load ptr, ptr %9, align 8
  %146 = getelementptr inbounds nuw %struct.AttrMissing, ptr %145, i32 0, i32 1
  %147 = load i64, ptr %146, align 8
  %148 = getelementptr inbounds nuw %struct.missing_cache_key, ptr %10, i32 0, i32 1
  store i64 %147, ptr %148, align 8
  %149 = load ptr, ptr @missing_cache, align 8
  %150 = call ptr @hash_search(ptr noundef %149, ptr noundef %10, i32 noundef 1, ptr noundef %12)
  store ptr %150, ptr %11, align 8
  %151 = load i8, ptr %12, align 1, !range !4, !noundef !5
  %152 = trunc i8 %151 to i1
  br i1 %152, label %168, label %153

153:                                              ; preds = %144
  %154 = load ptr, ptr @TopMemoryContext, align 8
  %155 = call ptr @MemoryContextSwitchTo(ptr noundef %154)
  store ptr %155, ptr %13, align 8
  %156 = load ptr, ptr %9, align 8
  %157 = getelementptr inbounds nuw %struct.AttrMissing, ptr %156, i32 0, i32 1
  %158 = load i64, ptr %157, align 8
  %159 = load ptr, ptr %8, align 8
  %160 = getelementptr inbounds nuw %struct.CompactAttribute, ptr %159, i32 0, i32 1
  %161 = load i16, ptr %160, align 4
  %162 = sext i16 %161 to i32
  %163 = call i64 @datumCopy(i64 noundef %158, i1 noundef zeroext false, i32 noundef %162)
  %164 = load ptr, ptr %11, align 8
  %165 = getelementptr inbounds nuw %struct.missing_cache_key, ptr %164, i32 0, i32 1
  store i64 %163, ptr %165, align 8
  %166 = load ptr, ptr %13, align 8
  %167 = call ptr @MemoryContextSwitchTo(ptr noundef %166)
  br label %168

168:                                              ; preds = %153, %144
  %169 = load ptr, ptr %11, align 8
  %170 = getelementptr inbounds nuw %struct.missing_cache_key, ptr %169, i32 0, i32 1
  %171 = load i64, ptr %170, align 8
  store i64 %171, ptr %4, align 8
  store i32 1, ptr %14, align 4
  br label %172

172:                                              ; preds = %168, %43
  call void @llvm.lifetime.end.p0(i64 8, ptr %13) #8
  call void @llvm.lifetime.end.p0(i64 1, ptr %12) #8
  call void @llvm.lifetime.end.p0(i64 8, ptr %11) #8
  call void @llvm.lifetime.end.p0(i64 16, ptr %10) #8
  br label %174

173:                                              ; preds = %23
  store i32 0, ptr %14, align 4
  br label %174

174:                                              ; preds = %173, %172
  call void @llvm.lifetime.end.p0(i64 8, ptr %9) #8
  %175 = load i32, ptr %14, align 4
  switch i32 %175, label %180 [
    i32 0, label %176
  ]

176:                                              ; preds = %174
  br label %177

177:                                              ; preds = %176, %3
  %178 = load ptr, ptr %7, align 8
  store i8 1, ptr %178, align 1
  %179 = call i64 @PointerGetDatum(ptr noundef null)
  store i64 %179, ptr %4, align 8
  store i32 1, ptr %14, align 4
  br label %180

180:                                              ; preds = %177, %174
  call void @llvm.lifetime.end.p0(i64 8, ptr %8) #8
  %181 = load i64, ptr %4, align 8
  ret i64 %181
}