; Function Attrs: nounwind uwtable
define dso_local i64 @getmissingattr(ptr noundef readonly captures(none) %0, i32 noundef %1, ptr noundef writeonly captures(none) initializes((0, 1)) %2) local_unnamed_addr #0 {
  %4 = alloca %struct.HASHCTL, align 8
  %5 = alloca %struct.missing_cache_key, align 8
  %6 = alloca i8, align 1
  %7 = add i32 %1, -1
  %8 = getelementptr inbounds nuw i8, ptr %0, i64 24
  %9 = sext i32 %7 to i64
  %10 = getelementptr inbounds [0 x %struct.CompactAttribute], ptr %8, i64 0, i64 %9
  %11 = getelementptr inbounds nuw i8, ptr %10, i64 8
  %12 = load i8, ptr %11, align 4, !range !4, !noundef !5
  %13 = trunc nuw i8 %12 to i1
  br i1 %13, label %14, label %82

14:                                               ; preds = %3
  %15 = getelementptr inbounds nuw i8, ptr %0, i64 16
  %16 = load ptr, ptr %15, align 8
  %17 = getelementptr inbounds nuw i8, ptr %16, i64 16
  %18 = load ptr, ptr %17, align 8
  %19 = getelementptr inbounds %struct.AttrMissing, ptr %18, i64 %9
  %20 = load i8, ptr %19, align 8, !range !4, !noundef !5
  %21 = trunc nuw i8 %20 to i1
  br i1 %21, label %22, label %82

22:                                               ; preds = %14
  call void @llvm.lifetime.start.p0(i64 16, ptr nonnull %5) #12
  call void @llvm.lifetime.start.p0(i64 1, ptr nonnull %6) #12
  store i8 0, ptr %2, align 1
  %23 = getelementptr inbounds nuw i8, ptr %10, i64 6
  %24 = load i8, ptr %23, align 2, !range !4, !noundef !5
  %25 = trunc nuw i8 %24 to i1
  br i1 %25, label %.thread, label %26

26:                                               ; preds = %22
  %27 = load ptr, ptr @missing_cache, align 8
  %28 = icmp eq ptr %27, null
  br i1 %28, label %29, label %37

29:                                               ; preds = %26
  call void @llvm.lifetime.start.p0(i64 96, ptr nonnull %4) #12
  %30 = getelementptr inbounds nuw i8, ptr %4, i64 32
  store i64 16, ptr %30, align 8
  %31 = getelementptr inbounds nuw i8, ptr %4, i64 40
  store i64 16, ptr %31, align 8
  %32 = load ptr, ptr @TopMemoryContext, align 8
  %33 = getelementptr inbounds nuw i8, ptr %4, i64 80
  store ptr %32, ptr %33, align 8
  %34 = getelementptr inbounds nuw i8, ptr %4, i64 48
  store ptr @missing_hash, ptr %34, align 8
  %35 = getelementptr inbounds nuw i8, ptr %4, i64 56
  store ptr @missing_match, ptr %35, align 8
  %36 = call ptr @hash_create(ptr noundef nonnull @.str.4, i64 noundef 32, ptr noundef nonnull %4, i32 noundef 1224) #12
  store ptr %36, ptr @missing_cache, align 8
  call void @llvm.lifetime.end.p0(i64 96, ptr nonnull %4) #12
  br label %37

37:                                               ; preds = %29, %26
  %38 = phi ptr [ %36, %29 ], [ %27, %26 ]
  %39 = getelementptr inbounds nuw i8, ptr %10, i64 4
  %40 = load i16, ptr %39, align 4
  %41 = icmp sgt i16 %40, 0
  br i1 %41, label %42, label %44

42:                                               ; preds = %37
  %43 = zext nneg i16 %40 to i32
  %.phi.trans.insert = getelementptr inbounds nuw i8, ptr %19, i64 8
  %.pre = load i64, ptr %.phi.trans.insert, align 8
  br label %67

44:                                               ; preds = %37
  %45 = getelementptr inbounds nuw i8, ptr %19, i64 8
  %46 = load i64, ptr %45, align 8
  %47 = inttoptr i64 %46 to ptr
  %48 = load i8, ptr %47, align 1
  %49 = zext i8 %48 to i32
  %50 = icmp eq i8 %48, 1
  br i1 %50, label %51, label %60

51:                                               ; preds = %44
  %52 = getelementptr inbounds nuw i8, ptr %47, i64 1
  %53 = load i8, ptr %52, align 1
  %54 = icmp eq i8 %53, 1
  %55 = and i8 %53, -2
  %56 = icmp eq i8 %55, 2
  %or.cond = or i1 %54, %56
  %57 = icmp eq i8 %53, 18
  %58 = select i1 %57, i32 18, i32 2
  %59 = select i1 %or.cond, i32 10, i32 %58
  br label %67

60:                                               ; preds = %44
  %61 = and i32 %49, 1
  %.not = icmp eq i32 %61, 0
  br i1 %.not, label %64, label %62

62:                                               ; preds = %60
  %63 = lshr i32 %49, 1
  br label %67

64:                                               ; preds = %60
  %65 = load i32, ptr %47, align 4
  %66 = lshr i32 %65, 2
  br label %67

67:                                               ; preds = %51, %64, %62, %42
  %68 = phi i64 [ %.pre, %42 ], [ %46, %51 ], [ %46, %62 ], [ %46, %64 ]
  %storemerge = phi i32 [ %43, %42 ], [ %59, %51 ], [ %63, %62 ], [ %66, %64 ]
  store i32 %storemerge, ptr %5, align 8
  %69 = getelementptr inbounds nuw i8, ptr %5, i64 8
  store i64 %68, ptr %69, align 8
  %70 = call ptr @hash_search(ptr noundef %38, ptr noundef nonnull %5, i32 noundef 1, ptr noundef nonnull %6) #12
  %71 = load i8, ptr %6, align 1, !range !4, !noundef !5
  %72 = trunc nuw i8 %71 to i1
  br i1 %72, label %.thread, label %73

73:                                               ; preds = %67
  %74 = getelementptr inbounds nuw i8, ptr %19, i64 8
  %75 = load ptr, ptr @TopMemoryContext, align 8
  %76 = load ptr, ptr @CurrentMemoryContext, align 8
  store ptr %75, ptr @CurrentMemoryContext, align 8
  %77 = load i64, ptr %74, align 8
  %78 = load i16, ptr %39, align 4
  %79 = sext i16 %78 to i32
  %80 = call i64 @datumCopy(i64 noundef %77, i1 noundef zeroext false, i32 noundef %79) #12
  %81 = getelementptr inbounds nuw i8, ptr %70, i64 8
  store i64 %80, ptr %81, align 8
  store ptr %76, ptr @CurrentMemoryContext, align 8
  br label %.thread

.thread:                                          ; preds = %22, %73, %67
  %.pn = phi ptr [ %19, %22 ], [ %70, %73 ], [ %70, %67 ]
  %.026.in = getelementptr inbounds nuw i8, ptr %.pn, i64 8
  %.026 = load i64, ptr %.026.in, align 8
  call void @llvm.lifetime.end.p0(i64 1, ptr nonnull %6) #12
  call void @llvm.lifetime.end.p0(i64 16, ptr nonnull %5) #12
  br label %83

82:                                               ; preds = %14, %3
  store i8 1, ptr %2, align 1
  br label %83

83:                                               ; preds = %.thread, %82
  %.2 = phi i64 [ 0, %82 ], [ %.026, %.thread ]
  ret i64 %.2
}